; Function Attrs: nounwind uwtable
define i32 @hwloc_free(ptr noundef %0, ptr noundef %1, i64 noundef %2) local_unnamed_addr #0 {
  %4 = getelementptr inbounds nuw i8, ptr %0, i64 640
  %5 = load ptr, ptr %4, align 8, !tbaa !67
  %.not = icmp eq ptr %5, null
  br i1 %.not, label %8, label %6

6:                                                ; preds = %3
  %7 = tail call i32 %5(ptr noundef nonnull %0, ptr noundef %1, i64 noundef %2) #14
  br label %9

8:                                                ; preds = %3
  tail call void @free(ptr noundef %1) #14
  br label %9

9:                                                ; preds = %8, %6
  %.0 = phi i32 [ %7, %6 ], [ 0, %8 ]
  ret i32 %.0
}